target datalayout = "e-m:e-p270:32:32-p271:32:32-p272:64:64-i64:64-i128:128-f80:128-n8:16:32:64-S128"
target triple = "x86_64-pc-linux-gnu"

%struct.PQExpBufferData = type { ptr, i64, i64 }

@.str.20 = private unnamed_addr constant [8 x i8] c"CLUSTER\00", align 1
@.str.21 = private unnamed_addr constant [9 x i8] c" VERBOSE\00", align 1
@.str.22 = private unnamed_addr constant [53 x i8] c"clustering of table \22%s\22 in database \22%s\22 failed: %s\00", align 1
@.str.23 = private unnamed_addr constant [39 x i8] c"clustering of database \22%s\22 failed: %s\00", align 1

; Function Attrs: nounwind uwtable
define internal void @cluster_one_database(ptr noundef %0, ptr noundef %1, ptr noundef %2, i1 noundef zeroext %3, i1 noundef zeroext %4) #0 {
  %6 = alloca ptr, align 8
  %7 = alloca ptr, align 8
  %8 = alloca ptr, align 8
  %9 = alloca i8, align 1
  %10 = alloca i8, align 1
  %11 = alloca %struct.PQExpBufferData, align 8
  %12 = alloca ptr, align 8
  store ptr %0, ptr %6, align 8
  store ptr %1, ptr %7, align 8
  store ptr %2, ptr %8, align 8
  %13 = zext i1 %3 to i8
  store i8 %13, ptr %9, align 1
  %14 = zext i1 %4 to i8
  store i8 %14, ptr %10, align 1
  call void @llvm.lifetime.start.p0(i64 24, ptr %11) #6
  call void @llvm.lifetime.start.p0(i64 8, ptr %12) #6
  %15 = load ptr, ptr %6, align 8
  %16 = load ptr, ptr %8, align 8
  %17 = load i8, ptr %10, align 1, !range !6, !noundef !7
  %18 = trunc i8 %17 to i1
  %19 = call ptr @connectDatabase(ptr noundef %15, ptr noundef %16, i1 noundef zeroext %18, i1 noundef zeroext false, i1 noundef zeroext true)
  store ptr %19, ptr %12, align 8
  call void @initPQExpBuffer(ptr noundef %11)
  call void @appendPQExpBufferStr(ptr noundef %11, ptr noundef @.str.20)
  %20 = load i8, ptr %9, align 1, !range !6, !noundef !7
  %21 = trunc i8 %20 to i1
  br i1 %21, label %22, label %23

22:                                               ; preds = %5
  call void @appendPQExpBufferStr(ptr noundef %11, ptr noundef @.str.21)
  br label %23

23:                                               ; preds = %22, %5
  %24 = load ptr, ptr %7, align 8
  %25 = icmp ne ptr %24, null
  br i1 %25, label %26, label %31

26:                                               ; preds = %23
  call void @appendPQExpBufferChar(ptr noundef %11, i8 noundef signext 32)
  %27 = load ptr, ptr %7, align 8
  %28 = load ptr, ptr %12, align 8
  %29 = load i8, ptr %10, align 1, !range !6, !noundef !7
  %30 = trunc i8 %29 to i1
  call void @appendQualifiedRelation(ptr noundef %11, ptr noundef %27, ptr noundef %28, i1 noundef zeroext %30)
  br label %31

31:                                               ; preds = %26, %23
  call void @appendPQExpBufferChar(ptr noundef %11, i8 noundef signext 59)
  %32 = load ptr, ptr %12, align 8
  %33 = getelementptr inbounds nuw %struct.PQExpBufferData, ptr %11, i32 0, i32 0
  %34 = load ptr, ptr %33, align 8
  %35 = load i8, ptr %10, align 1, !range !6, !noundef !7
  %36 = trunc i8 %35 to i1
  %37 = call zeroext i1 @executeMaintenanceCommand(ptr noundef %32, ptr noundef %34, i1 noundef zeroext %36)
  br i1 %37, label %54, label %38

38:                                               ; preds = %31
  %39 = load ptr, ptr %7, align 8
  %40 = icmp ne ptr %39, null
  br i1 %40, label %41, label %47

41:                                               ; preds = %38
  %42 = load ptr, ptr %7, align 8
  %43 = load ptr, ptr %12, align 8
  %44 = call ptr @PQdb(ptr noundef %43)
  %45 = load ptr, ptr %12, align 8
  %46 = call ptr @PQerrorMessage(ptr noundef %45)
  call void (i32, i32, ptr, ...) @pg_log_generic(i32 noundef 4, i32 noundef 0, ptr noundef @.str.22, ptr noundef %42, ptr noundef %44, ptr noundef %46)
  br label %52

47:                                               ; preds = %38
  %48 = load ptr, ptr %12, align 8
  %49 = call ptr @PQdb(ptr noundef %48)
  %50 = load ptr, ptr %12, align 8
  %51 = call ptr @PQerrorMessage(ptr noundef %50)
  call void (i32, i32, ptr, ...) @pg_log_generic(i32 noundef 4, i32 noundef 0, ptr noundef @.str.23, ptr noundef %49, ptr noundef %51)
  br label %52

52:                                               ; preds = %47, %41
  %53 = load ptr, ptr %12, align 8
  call void @PQfinish(ptr noundef %53)
  call void @exit(i32 noundef 1) #7
  unreachable

54:                                               ; preds = %31
  %55 = load ptr, ptr %12, align 8
  call void @PQfinish(ptr noundef %55)
  call void @termPQExpBuffer(ptr noundef %11)
  call void @llvm.lifetime.end.p0(i64 8, ptr %12) #6
  call void @llvm.lifetime.end.p0(i64 24, ptr %11) #6
  ret void
}