; Function Attrs: nounwind uwtable
define internal fastcc void @cluster_one_database(ptr noundef nonnull %0, ptr noundef %1, ptr noundef %2, i1 noundef zeroext %3, i1 noundef zeroext %4) unnamed_addr #4 {
  %6 = alloca %struct.PQExpBufferData, align 8
  call void @llvm.lifetime.start.p0(i64 24, ptr nonnull %6) #9
  %7 = tail call ptr @connectDatabase(ptr noundef nonnull %0, ptr noundef %2, i1 noundef zeroext %4, i1 noundef zeroext false, i1 noundef zeroext true) #9
  call void @initPQExpBuffer(ptr noundef nonnull %6) #9
  call void @appendPQExpBufferStr(ptr noundef nonnull %6, ptr noundef nonnull @.str.20) #9
  br i1 %3, label %8, label %9

8:                                                ; preds = %5
  call void @appendPQExpBufferStr(ptr noundef nonnull %6, ptr noundef nonnull @.str.21) #9
  br label %9

9:                                                ; preds = %8, %5
  %.not = icmp eq ptr %1, null
  br i1 %.not, label %11, label %10

10:                                               ; preds = %9
  call void @appendPQExpBufferChar(ptr noundef nonnull %6, i8 noundef signext 32) #9
  call void @appendQualifiedRelation(ptr noundef nonnull %6, ptr noundef nonnull %1, ptr noundef %7, i1 noundef zeroext %4) #9
  br label %11

11:                                               ; preds = %10, %9
  call void @appendPQExpBufferChar(ptr noundef nonnull %6, i8 noundef signext 59) #9
  %12 = load ptr, ptr %6, align 8
  %13 = call zeroext i1 @executeMaintenanceCommand(ptr noundef %7, ptr noundef %12, i1 noundef zeroext %4) #9
  br i1 %13, label %20, label %14

14:                                               ; preds = %11
  %15 = call ptr @PQdb(ptr noundef %7) #9
  %16 = call ptr @PQerrorMessage(ptr noundef %7) #9
  br i1 %.not, label %18, label %17

17:                                               ; preds = %14
  call void (i32, i32, ptr, ...) @pg_log_generic(i32 noundef 4, i32 noundef 0, ptr noundef nonnull @.str.22, ptr noundef nonnull %1, ptr noundef %15, ptr noundef %16) #9
  br label %19

18:                                               ; preds = %14
  call void (i32, i32, ptr, ...) @pg_log_generic(i32 noundef 4, i32 noundef 0, ptr noundef nonnull @.str.23, ptr noundef %15, ptr noundef %16) #9
  br label %19

19:                                               ; preds = %18, %17
  call void @PQfinish(ptr noundef %7) #9
  call void @exit(i32 noundef 1) #10
  unreachable

20:                                               ; preds = %11
  call void @PQfinish(ptr noundef %7) #9
  call void @termPQExpBuffer(ptr noundef nonnull %6) #9
  call void @llvm.lifetime.end.p0(i64 24, ptr nonnull %6) #9
  ret void
}